target datalayout = "e-m:e-p270:32:32-p271:32:32-p272:64:64-i64:64-i128:128-f80:128-n8:16:32:64-S128"
target triple = "x86_64-pc-linux-gnu"

%"class.OpenSubdiv::v3_6_0::Sdc::Options" = type { i8, i8, i8, i8 }
%"class.OpenSubdiv::v3_6_0::Bfr::MultiVertexTag" = type { %"class.OpenSubdiv::v3_6_0::Bfr::FeatureBits" }
%"class.OpenSubdiv::v3_6_0::Bfr::FeatureBits" = type { i16 }
%"class.OpenSubdiv::v3_6_0::Bfr::FaceTopology" = type { i32, %"class.OpenSubdiv::v3_6_0::Sdc::Options", i32, i32, i32, %"class.OpenSubdiv::v3_6_0::Bfr::MultiVertexTag", i8, %"class.OpenSubdiv::v3_6_0::Vtr::internal::StackBuffer" }
%"class.OpenSubdiv::v3_6_0::Vtr::internal::StackBuffer" = type { ptr, i32, i32, [896 x i8], ptr }
%"class.OpenSubdiv::v3_6_0::Bfr::FaceVertex" = type { %"class.OpenSubdiv::v3_6_0::Bfr::VertexDescriptor", %"class.OpenSubdiv::v3_6_0::Bfr::VertexTag", i16, i16, i8, i8, i32, %"class.OpenSubdiv::v3_6_0::Vtr::internal::StackBuffer.3" }
%"class.OpenSubdiv::v3_6_0::Bfr::VertexDescriptor" = type { i8, i16, float, %"class.OpenSubdiv::v3_6_0::Vtr::internal::StackBuffer.1", %"class.OpenSubdiv::v3_6_0::Vtr::internal::StackBuffer.2" }
%"class.OpenSubdiv::v3_6_0::Vtr::internal::StackBuffer.1" = type { ptr, i32, i32, [64 x i8], ptr }
%"class.OpenSubdiv::v3_6_0::Vtr::internal::StackBuffer.2" = type { ptr, i32, i32, [32 x i8], ptr }
%"class.OpenSubdiv::v3_6_0::Bfr::VertexTag" = type { %"class.OpenSubdiv::v3_6_0::Bfr::FeatureBits" }
%"class.OpenSubdiv::v3_6_0::Vtr::internal::StackBuffer.3" = type { ptr, i32, i32, [32 x i8], ptr }

; Function Attrs: mustprogress nounwind uwtable
define linkonce_odr noundef i32 @_ZNK10OpenSubdiv6v3_6_03Bfr10FaceVertex18GetNumFaceVerticesEv(ptr noundef nonnull align 8 dereferenceable(224) %0) #0 comdat align 2 {
  %2 = alloca ptr, align 8
  store ptr %0, ptr %2, align 8
  %3 = load ptr, ptr %2, align 8
  %4 = getelementptr inbounds nuw %"class.OpenSubdiv::v3_6_0::Bfr::FaceVertex", ptr %3, i32 0, i32 6
  %5 = load i32, ptr %4, align 8
  ret i32 %5
}

; Function Attrs: mustprogress nounwind uwtable
define linkonce_odr noundef ptr @_ZNK10OpenSubdiv6v3_6_03Vtr8internal11StackBufferINS0_3Bfr10FaceVertexELj4ELb0EEcvPKS5_Ev(ptr noundef nonnull align 8 dereferenceable(920) %0) #0 comdat align 2 {
  %2 = alloca ptr, align 8
  store ptr %0, ptr %2, align 8
  %3 = load ptr, ptr %2, align 8
  %4 = getelementptr inbounds nuw %"class.OpenSubdiv::v3_6_0::Vtr::internal::StackBuffer", ptr %3, i32 0, i32 0
  %5 = load ptr, ptr %4, align 8
  ret ptr %5
}

; Function Attrs: mustprogress nounwind uwtable
define linkonce_odr noundef i32 @_ZNK10OpenSubdiv6v3_6_03Bfr12FaceTopology18GetNumFaceVerticesEi(ptr noundef nonnull align 8 dereferenceable(944) %0, i32 noundef %1) #0 comdat align 2 {
  %3 = alloca ptr, align 8
  %4 = alloca i32, align 4
  store ptr %0, ptr %3, align 8
  store i32 %1, ptr %4, align 4
  %5 = load ptr, ptr %3, align 8
  %6 = getelementptr inbounds nuw %"class.OpenSubdiv::v3_6_0::Bfr::FaceTopology", ptr %5, i32 0, i32 7
  %7 = call noundef ptr @_ZNK10OpenSubdiv6v3_6_03Vtr8internal11StackBufferINS0_3Bfr10FaceVertexELj4ELb0EEcvPKS5_Ev(ptr noundef nonnull align 8 dereferenceable(920) %6)
  %8 = load i32, ptr %4, align 4
  %9 = sext i32 %8 to i64
  %10 = getelementptr inbounds %"class.OpenSubdiv::v3_6_0::Bfr::FaceVertex", ptr %7, i64 %9
  %11 = call noundef i32 @_ZNK10OpenSubdiv6v3_6_03Bfr10FaceVertex18GetNumFaceVerticesEv(ptr noundef nonnull align 8 dereferenceable(224) %10)
  ret i32 %11
}

; Function Attrs: mustprogress nounwind uwtable
define linkonce_odr noundef i32 @_ZNK10OpenSubdiv6v3_6_03Bfr12FaceTopology11GetFaceSizeEv(ptr noundef nonnull align 8 dereferenceable(944) %0) #0 comdat align 2 {
  %2 = alloca ptr, align 8
  store ptr %0, ptr %2, align 8
  %3 = load ptr, ptr %2, align 8
  %4 = getelementptr inbounds nuw %"class.OpenSubdiv::v3_6_0::Bfr::FaceTopology", ptr %3, i32 0, i32 2
  %5 = load i32, ptr %4, align 8
  ret i32 %5
}

; Function Attrs: mustprogress uwtable
define noundef i32 @_ZNK10OpenSubdiv6v3_6_03Bfr14SurfaceFactory29gatherFaceNeighborhoodIndicesEiRKNS1_12FaceTopologyEPKlPi(ptr noundef nonnull align 8 dereferenceable(56) %0, i32 noundef %1, ptr noundef nonnull align 8 dereferenceable(944) %2, ptr noundef %3, ptr noundef %4) #1 align 2 {
  %6 = alloca i32, align 4
  %7 = alloca ptr, align 8
  %8 = alloca i32, align 4
  %9 = alloca ptr, align 8
  %10 = alloca ptr, align 8
  %11 = alloca ptr, align 8
  %12 = alloca i32, align 4
  %13 = alloca ptr, align 8
  %14 = alloca i32, align 4
  %15 = alloca i32, align 4
  %16 = alloca i32, align 4
  store ptr %0, ptr %7, align 8
  store i32 %1, ptr %8, align 4
  store ptr %2, ptr %9, align 8
  store ptr %3, ptr %10, align 8
  store ptr %4, ptr %11, align 8
  %17 = load ptr, ptr %7, align 8
  %18 = load ptr, ptr %9, align 8
  %19 = call noundef i32 @_ZNK10OpenSubdiv6v3_6_03Bfr12FaceTopology11GetFaceSizeEv(ptr noundef nonnull align 8 dereferenceable(944) %18)
  store i32 %19, ptr %12, align 4
  %20 = load ptr, ptr %11, align 8
  store ptr %20, ptr %13, align 8
  store i32 0, ptr %14, align 4
  store i32 0, ptr %15, align 4
  br label %21

21:                                               ; preds = %62, %5
  %22 = load i32, ptr %15, align 4
  %23 = load i32, ptr %12, align 4
  %24 = icmp slt i32 %22, %23
  br i1 %24, label %25, label %65

25:                                               ; preds = %21
  %26 = load ptr, ptr %10, align 8
  %27 = icmp eq ptr %26, null
  br i1 %27, label %28, label %36

28:                                               ; preds = %25
  %29 = load i32, ptr %8, align 4
  %30 = load i32, ptr %15, align 4
  %31 = load ptr, ptr %13, align 8
  %32 = load ptr, ptr %17, align 8
  %33 = getelementptr inbounds ptr, ptr %32, i64 7
  %34 = load ptr, ptr %33, align 8
  %35 = call noundef i32 %34(ptr noundef nonnull align 8 dereferenceable(8) %17, i32 noundef %29, i32 noundef %30, ptr noundef %31)
  br label %46

36:                                               ; preds = %25
  %37 = load i32, ptr %8, align 4
  %38 = load i32, ptr %15, align 4
  %39 = load ptr, ptr %10, align 8
  %40 = load i64, ptr %39, align 8
  %41 = load ptr, ptr %13, align 8
  %42 = load ptr, ptr %17, align 8
  %43 = getelementptr inbounds ptr, ptr %42, i64 8
  %44 = load ptr, ptr %43, align 8
  %45 = call noundef i32 %44(ptr noundef nonnull align 8 dereferenceable(8) %17, i32 noundef %37, i32 noundef %38, i64 noundef %40, ptr noundef %41)
  br label %46

46:                                               ; preds = %36, %28
  %47 = phi i32 [ %35, %28 ], [ %45, %36 ]
  store i32 %47, ptr %16, align 4
  %48 = load i32, ptr %16, align 4
  %49 = load ptr, ptr %9, align 8
  %50 = load i32, ptr %15, align 4
  %51 = call noundef i32 @_ZNK10OpenSubdiv6v3_6_03Bfr12FaceTopology18GetNumFaceVerticesEi(ptr noundef nonnull align 8 dereferenceable(944) %49, i32 noundef %50)
  %52 = icmp ne i32 %48, %51
  br i1 %52, label %53, label %54

53:                                               ; preds = %46
  store i32 -1, ptr %6, align 4
  br label %67

54:                                               ; preds = %46
  %55 = load i32, ptr %16, align 4
  %56 = load ptr, ptr %13, align 8
  %57 = sext i32 %55 to i64
  %58 = getelementptr inbounds i32, ptr %56, i64 %57
  store ptr %58, ptr %13, align 8
  %59 = load i32, ptr %16, align 4
  %60 = load i32, ptr %14, align 4
  %61 = add nsw i32 %60, %59
  store i32 %61, ptr %14, align 4
  br label %62

62:                                               ; preds = %54
  %63 = load i32, ptr %15, align 4
  %64 = add nsw i32 %63, 1
  store i32 %64, ptr %15, align 4
  br label %21, !llvm.loop !15

65:                                               ; preds = %21
  %66 = load i32, ptr %14, align 4
  store i32 %66, ptr %6, align 4
  br label %67

67:                                               ; preds = %65, %53
  %68 = load i32, ptr %6, align 4
  ret i32 %68
}