; Function Attrs: mustprogress uwtable
define noundef i32 @_ZNK10OpenSubdiv6v3_6_03Bfr14SurfaceFactory29gatherFaceNeighborhoodIndicesEiRKNS1_12FaceTopologyEPKlPi(ptr noundef nonnull align 8 dereferenceable(56) %0, i32 noundef %1, ptr noundef nonnull readonly align 8 captures(none) dereferenceable(944) %2, ptr noundef readonly %3, ptr noundef %4) local_unnamed_addr #2 align 2 {
  %6 = getelementptr inbounds nuw i8, ptr %2, i64 8
  %7 = load i32, ptr %6, align 8
  %8 = icmp sgt i32 %7, 0
  br i1 %8, label %.lr.ph, label %._crit_edge

.lr.ph:                                           ; preds = %5
  %9 = icmp eq ptr %3, null
  %10 = getelementptr inbounds nuw i8, ptr %2, i64 24
  %wide.trip.count39 = zext nneg i32 %7 to i64
  br i1 %9, label %.lr.ph.split.us, label %.lr.ph.split

.lr.ph.split.us:                                  ; preds = %.lr.ph, %19
  %indvars.iv36 = phi i64 [ %indvars.iv.next37, %19 ], [ 0, %.lr.ph ]
  %.02328.us = phi i32 [ %22, %19 ], [ 0, %.lr.ph ]
  %.02427.us = phi ptr [ %21, %19 ], [ %4, %.lr.ph ]
  %11 = load ptr, ptr %0, align 8
  %12 = getelementptr inbounds nuw i8, ptr %11, i64 56
  %13 = load ptr, ptr %12, align 8
  %14 = trunc nuw nsw i64 %indvars.iv36 to i32
  %15 = tail call noundef i32 %13(ptr noundef nonnull align 8 dereferenceable(8) %0, i32 noundef %1, i32 noundef %14, ptr noundef %.02427.us)
  %16 = load ptr, ptr %10, align 8
  %17 = getelementptr inbounds nuw %"class.OpenSubdiv::v3_6_0::Bfr::FaceVertex", ptr %16, i64 %indvars.iv36, i32 6
  %18 = load i32, ptr %17, align 8
  %.not.us = icmp eq i32 %15, %18
  br i1 %.not.us, label %19, label %._crit_edge

19:                                               ; preds = %.lr.ph.split.us
  %20 = sext i32 %15 to i64
  %21 = getelementptr inbounds i32, ptr %.02427.us, i64 %20
  %22 = add nsw i32 %15, %.02328.us
  %indvars.iv.next37 = add nuw nsw i64 %indvars.iv36, 1
  %exitcond40.not = icmp eq i64 %indvars.iv.next37, %wide.trip.count39
  br i1 %exitcond40.not, label %._crit_edge, label %.lr.ph.split.us, !llvm.loop !27

.lr.ph.split:                                     ; preds = %.lr.ph, %32
  %indvars.iv = phi i64 [ %indvars.iv.next, %32 ], [ 0, %.lr.ph ]
  %.02328 = phi i32 [ %35, %32 ], [ 0, %.lr.ph ]
  %.02427 = phi ptr [ %34, %32 ], [ %4, %.lr.ph ]
  %23 = load i64, ptr %3, align 8
  %24 = load ptr, ptr %0, align 8
  %25 = getelementptr inbounds nuw i8, ptr %24, i64 64
  %26 = load ptr, ptr %25, align 8
  %27 = trunc nuw nsw i64 %indvars.iv to i32
  %28 = tail call noundef i32 %26(ptr noundef nonnull align 8 dereferenceable(8) %0, i32 noundef %1, i32 noundef %27, i64 noundef %23, ptr noundef %.02427)
  %29 = load ptr, ptr %10, align 8
  %30 = getelementptr inbounds nuw %"class.OpenSubdiv::v3_6_0::Bfr::FaceVertex", ptr %29, i64 %indvars.iv, i32 6
  %31 = load i32, ptr %30, align 8
  %.not = icmp eq i32 %28, %31
  br i1 %.not, label %32, label %._crit_edge

32:                                               ; preds = %.lr.ph.split
  %33 = sext i32 %28 to i64
  %34 = getelementptr inbounds i32, ptr %.02427, i64 %33
  %35 = add nsw i32 %28, %.02328
  %indvars.iv.next = add nuw nsw i64 %indvars.iv, 1
  %exitcond.not = icmp eq i64 %indvars.iv.next, %wide.trip.count39
  br i1 %exitcond.not, label %._crit_edge, label %.lr.ph.split, !llvm.loop !27

._crit_edge:                                      ; preds = %.lr.ph.split, %32, %.lr.ph.split.us, %19, %5
  %.0 = phi i32 [ 0, %5 ], [ %22, %19 ], [ -1, %.lr.ph.split.us ], [ %35, %32 ], [ -1, %.lr.ph.split ]
  ret i32 %.0
}